; ModuleID = 'source-C-CXX/48/465.cpp'
source_filename = "source-C-CXX/48/465.cpp"
target datalayout = "e-m:e-p270:32:32-p271:32:32-p272:64:64-i64:64-f80:128-n8:16:32:64-S128"
target triple = "x86_64-pc-linux-gnu"

%"class.std::ios_base::Init" = type { i8 }
%"class.std::basic_istream" = type { i32 (...)**, i64, %"class.std::basic_ios" }
%"class.std::basic_ios" = type { %"class.std::ios_base", %"class.std::basic_ostream"*, i8, i8, %"class.std::basic_streambuf"*, %"class.std::ctype"*, %"class.std::num_put"*, %"class.std::num_get"* }
%"class.std::ios_base" = type { i32 (...)**, i64, i64, i32, i32, i32, %"struct.std::ios_base::_Callback_list"*, %"struct.std::ios_base::_Words", [8 x %"struct.std::ios_base::_Words"], i32, %"struct.std::ios_base::_Words"*, %"class.std::locale" }
%"struct.std::ios_base::_Callback_list" = type { %"struct.std::ios_base::_Callback_list"*, void (i32, %"class.std::ios_base"*, i32)*, i32, i32 }
%"struct.std::ios_base::_Words" = type { i8*, i64 }
%"class.std::locale" = type { %"class.std::locale::_Impl"* }
%"class.std::locale::_Impl" = type { i32, %"class.std::locale::facet"**, i64, %"class.std::locale::facet"**, i8** }
%"class.std::locale::facet" = type <{ i32 (...)**, i32, [4 x i8] }>
%"class.std::basic_ostream" = type { i32 (...)**, %"class.std::basic_ios" }
%"class.std::basic_streambuf" = type { i32 (...)**, i8*, i8*, i8*, i8*, i8*, i8*, %"class.std::locale" }
%"class.std::ctype" = type <{ %"class.std::locale::facet.base", [4 x i8], %struct.__locale_struct*, i8, [7 x i8], i32*, i32*, i16*, i8, [256 x i8], [256 x i8], i8, [6 x i8] }>
%"class.std::locale::facet.base" = type <{ i32 (...)**, i32 }>
%struct.__locale_struct = type { [13 x %struct.__locale_data*], i16*, i32*, i32*, [13 x i8*] }
%struct.__locale_data = type opaque
%"class.std::num_put" = type { %"class.std::locale::facet.base", [4 x i8] }
%"class.std::num_get" = type { %"class.std::locale::facet.base", [4 x i8] }

@_ZStL8__ioinit = internal global %"class.std::ios_base::Init" zeroinitializer, align 1
@__dso_handle = external hidden global i8
@_ZSt3cin = external global %"class.std::basic_istream", align 8
@_ZSt4cout = external global %"class.std::basic_ostream", align 8
@llvm.global_ctors = appending global [1 x { i32, void ()*, i8* }] [{ i32, void ()*, i8* } { i32 65535, void ()* @_GLOBAL__sub_I_465.cpp, i8* null }]

declare void @_ZNSt8ios_base4InitC1Ev(%"class.std::ios_base::Init"* nonnull align 1 dereferenceable(1)) unnamed_addr #0

; Function Attrs: nounwind
declare void @_ZNSt8ios_base4InitD1Ev(%"class.std::ios_base::Init"* nonnull align 1 dereferenceable(1)) unnamed_addr #1

; Function Attrs: nofree nounwind
declare i32 @__cxa_atexit(void (i8*)*, i8*, i8*) local_unnamed_addr #2

; Function Attrs: mustprogress norecurse sspstrong uwtable
define dso_local i32 @main() local_unnamed_addr #3 {
  %1 = alloca [501 x i8], align 16
  %2 = getelementptr inbounds [501 x i8], [501 x i8]* %1, i64 0, i64 0
  call void @llvm.lifetime.start.p0i8(i64 501, i8* nonnull %2) #11
  call void @_ZSt17__istream_extractRSiPcl(%"class.std::basic_istream"* nonnull align 8 dereferenceable(16) @_ZSt3cin, i8* nonnull %2, i64 501)
  call void @_Z5checkPc(i8* nonnull %2)
  call void @llvm.lifetime.end.p0i8(i64 501, i8* nonnull %2) #11
  ret i32 0
}

; Function Attrs: argmemonly mustprogress nofree nosync nounwind willreturn
declare void @llvm.lifetime.start.p0i8(i64 immarg, i8* nocapture) #4

; Function Attrs: mustprogress sspstrong uwtable
define dso_local void @_Z5checkPc(i8* nocapture readonly %0) local_unnamed_addr #5 {
  %2 = alloca i8, align 1
  %3 = tail call i64 @strlen(i8* noundef nonnull dereferenceable(1) %0) #12
  %4 = trunc i64 %3 to i32
  %5 = icmp slt i32 %4, 2
  br i1 %5, label %148, label %6

6:                                                ; preds = %1
  %7 = add i64 %3, 1
  %8 = and i64 %7, 4294967295
  br label %9

9:                                                ; preds = %6, %144
  %10 = phi i64 [ 0, %6 ], [ %147, %144 ]
  %11 = phi i32 [ %4, %6 ], [ %15, %144 ]
  %12 = phi i64 [ 2, %6 ], [ %145, %144 ]
  %13 = add i64 %10, 2
  %14 = add i64 %10, 2
  %15 = add i32 %11, -1
  %16 = trunc i64 %12 to i32
  %17 = icmp slt i32 %4, %16
  br i1 %17, label %144, label %18

18:                                               ; preds = %9
  %19 = zext i32 %15 to i64
  br label %20

20:                                               ; preds = %18, %140
  %21 = phi i64 [ %12, %18 ], [ %142, %140 ]
  %22 = phi i64 [ 0, %18 ], [ %141, %140 ]
  %23 = add i64 %13, %22
  %24 = add nuw i64 %22, 1
  %25 = call i64 @llvm.umax.i64(i64 %23, i64 %24)
  %26 = sub i64 %25, %22
  %27 = add i64 %14, %22
  %28 = add nuw i64 %22, 1
  %29 = call i64 @llvm.umax.i64(i64 %27, i64 %28)
  %30 = xor i64 %22, -1
  %31 = add i64 %29, %30
  %32 = trunc i64 %30 to i32
  %33 = add nuw nsw i64 %22, %12
  %34 = shl nuw nsw i64 %22, 1
  %35 = add nuw nsw i64 %34, %12
  %36 = icmp ult i64 %26, 8
  br i1 %36, label %82, label %37

37:                                               ; preds = %20
  %38 = trunc i64 %31 to i32
  %39 = sub i32 %32, %38
  %40 = icmp sgt i32 %39, %32
  %41 = icmp ugt i64 %31, 4294967295
  %42 = or i1 %40, %41
  br i1 %42, label %82, label %43

43:                                               ; preds = %37
  %44 = and i64 %26, -8
  %45 = add i64 %22, %44
  br label %46

46:                                               ; preds = %46, %43
  %47 = phi i64 [ 0, %43 ], [ %76, %46 ]
  %48 = phi <4 x i32> [ zeroinitializer, %43 ], [ %74, %46 ]
  %49 = phi <4 x i32> [ zeroinitializer, %43 ], [ %75, %46 ]
  %50 = add i64 %22, %47
  %51 = getelementptr inbounds i8, i8* %0, i64 %50
  %52 = bitcast i8* %51 to <4 x i8>*
  %53 = load <4 x i8>, <4 x i8>* %52, align 1, !tbaa !5
  %54 = getelementptr inbounds i8, i8* %51, i64 4
  %55 = bitcast i8* %54 to <4 x i8>*
  %56 = load <4 x i8>, <4 x i8>* %55, align 1, !tbaa !5
  %57 = xor i64 %50, -1
  %58 = shl i64 %57, 32
  %59 = ashr exact i64 %58, 32
  %60 = add nsw i64 %35, %59
  %61 = getelementptr inbounds i8, i8* %0, i64 %60
  %62 = getelementptr inbounds i8, i8* %61, i64 -3
  %63 = bitcast i8* %62 to <4 x i8>*
  %64 = load <4 x i8>, <4 x i8>* %63, align 1, !tbaa !5
  %65 = shufflevector <4 x i8> %64, <4 x i8> poison, <4 x i32> <i32 3, i32 2, i32 1, i32 0>
  %66 = getelementptr inbounds i8, i8* %61, i64 -7
  %67 = bitcast i8* %66 to <4 x i8>*
  %68 = load <4 x i8>, <4 x i8>* %67, align 1, !tbaa !5
  %69 = shufflevector <4 x i8> %68, <4 x i8> poison, <4 x i32> <i32 3, i32 2, i32 1, i32 0>
  %70 = icmp eq <4 x i8> %53, %65
  %71 = icmp eq <4 x i8> %56, %69
  %72 = zext <4 x i1> %70 to <4 x i32>
  %73 = zext <4 x i1> %71 to <4 x i32>
  %74 = add <4 x i32> %48, %72
  %75 = add <4 x i32> %49, %73
  %76 = add nuw i64 %47, 8
  %77 = icmp eq i64 %76, %44
  br i1 %77, label %78, label %46, !llvm.loop !8

78:                                               ; preds = %46
  %79 = add <4 x i32> %75, %74
  %80 = call i32 @llvm.vector.reduce.add.v4i32(<4 x i32> %79)
  %81 = icmp eq i64 %26, %44
  br i1 %81, label %101, label %82

82:                                               ; preds = %37, %20, %78
  %83 = phi i64 [ %22, %37 ], [ %22, %20 ], [ %45, %78 ]
  %84 = phi i32 [ 0, %37 ], [ 0, %20 ], [ %80, %78 ]
  br label %85

85:                                               ; preds = %82, %85
  %86 = phi i64 [ %99, %85 ], [ %83, %82 ]
  %87 = phi i32 [ %98, %85 ], [ %84, %82 ]
  %88 = getelementptr inbounds i8, i8* %0, i64 %86
  %89 = load i8, i8* %88, align 1, !tbaa !5
  %90 = xor i64 %86, -1
  %91 = shl i64 %90, 32
  %92 = ashr exact i64 %91, 32
  %93 = add nsw i64 %35, %92
  %94 = getelementptr inbounds i8, i8* %0, i64 %93
  %95 = load i8, i8* %94, align 1, !tbaa !5
  %96 = icmp eq i8 %89, %95
  %97 = zext i1 %96 to i32
  %98 = add nuw nsw i32 %87, %97
  %99 = add nuw nsw i64 %86, 1
  %100 = icmp ult i64 %99, %33
  br i1 %100, label %85, label %101, !llvm.loop !11

101:                                              ; preds = %85, %78
  %102 = phi i32 [ %80, %78 ], [ %98, %85 ]
  %103 = zext i32 %102 to i64
  %104 = icmp eq i64 %12, %103
  br i1 %104, label %105, label %140

105:                                              ; preds = %101, %105
  %106 = phi i64 [ %110, %105 ], [ %22, %101 ]
  %107 = getelementptr inbounds i8, i8* %0, i64 %106
  %108 = load i8, i8* %107, align 1, !tbaa !5
  call void @llvm.lifetime.start.p0i8(i64 1, i8* nonnull %2)
  store i8 %108, i8* %2, align 1, !tbaa !5
  %109 = call nonnull align 8 dereferenceable(8) %"class.std::basic_ostream"* @_ZSt16__ostream_insertIcSt11char_traitsIcEERSt13basic_ostreamIT_T0_ES6_PKS3_l(%"class.std::basic_ostream"* nonnull align 8 dereferenceable(8) @_ZSt4cout, i8* nonnull %2, i64 1)
  call void @llvm.lifetime.end.p0i8(i64 1, i8* nonnull %2)
  %110 = add nuw nsw i64 %106, 1
  %111 = icmp eq i64 %110, %21
  br i1 %111, label %112, label %105, !llvm.loop !12

112:                                              ; preds = %105
  %113 = load i8*, i8** bitcast (%"class.std::basic_ostream"* @_ZSt4cout to i8**), align 8, !tbaa !13
  %114 = getelementptr i8, i8* %113, i64 -24
  %115 = bitcast i8* %114 to i64*
  %116 = load i64, i64* %115, align 8
  %117 = add nsw i64 %116, 240
  %118 = getelementptr inbounds i8, i8* bitcast (%"class.std::basic_ostream"* @_ZSt4cout to i8*), i64 %117
  %119 = bitcast i8* %118 to %"class.std::ctype"**
  %120 = load %"class.std::ctype"*, %"class.std::ctype"** %119, align 8, !tbaa !15
  %121 = icmp eq %"class.std::ctype"* %120, null
  br i1 %121, label %122, label %123

122:                                              ; preds = %112
  call void @_ZSt16__throw_bad_castv() #13
  unreachable

123:                                              ; preds = %112
  %124 = getelementptr inbounds %"class.std::ctype", %"class.std::ctype"* %120, i64 0, i32 8
  %125 = load i8, i8* %124, align 8, !tbaa !19
  %126 = icmp eq i8 %125, 0
  br i1 %126, label %130, label %127

127:                                              ; preds = %123
  %128 = getelementptr inbounds %"class.std::ctype", %"class.std::ctype"* %120, i64 0, i32 9, i64 10
  %129 = load i8, i8* %128, align 1, !tbaa !5
  br label %136

130:                                              ; preds = %123
  call void @_ZNKSt5ctypeIcE13_M_widen_initEv(%"class.std::ctype"* nonnull align 8 dereferenceable(570) %120)
  %131 = bitcast %"class.std::ctype"* %120 to i8 (%"class.std::ctype"*, i8)***
  %132 = load i8 (%"class.std::ctype"*, i8)**, i8 (%"class.std::ctype"*, i8)*** %131, align 8, !tbaa !13
  %133 = getelementptr inbounds i8 (%"class.std::ctype"*, i8)*, i8 (%"class.std::ctype"*, i8)** %132, i64 6
  %134 = load i8 (%"class.std::ctype"*, i8)*, i8 (%"class.std::ctype"*, i8)** %133, align 8
  %135 = call signext i8 %134(%"class.std::ctype"* nonnull align 8 dereferenceable(570) %120, i8 signext 10)
  br label %136

136:                                              ; preds = %127, %130
  %137 = phi i8 [ %129, %127 ], [ %135, %130 ]
  %138 = call nonnull align 8 dereferenceable(8) %"class.std::basic_ostream"* @_ZNSo3putEc(%"class.std::basic_ostream"* nonnull align 8 dereferenceable(8) @_ZSt4cout, i8 signext %137)
  %139 = call nonnull align 8 dereferenceable(8) %"class.std::basic_ostream"* @_ZNSo5flushEv(%"class.std::basic_ostream"* nonnull align 8 dereferenceable(8) %138)
  br label %140

140:                                              ; preds = %101, %136
  %141 = add nuw nsw i64 %22, 1
  %142 = add nuw nsw i64 %21, 1
  %143 = icmp eq i64 %141, %19
  br i1 %143, label %144, label %20, !llvm.loop !21

144:                                              ; preds = %140, %9
  %145 = add nuw nsw i64 %12, 1
  %146 = icmp eq i64 %145, %8
  %147 = add i64 %10, 1
  br i1 %146, label %148, label %9, !llvm.loop !22

148:                                              ; preds = %144, %1
  ret void
}

; Function Attrs: argmemonly mustprogress nofree nosync nounwind willreturn
declare void @llvm.lifetime.end.p0i8(i64 immarg, i8* nocapture) #4

; Function Attrs: argmemonly mustprogress nofree nounwind readonly willreturn
declare i64 @strlen(i8* nocapture) local_unnamed_addr #6

declare void @_ZSt17__istream_extractRSiPcl(%"class.std::basic_istream"* nonnull align 8 dereferenceable(16), i8*, i64) local_unnamed_addr #0

declare nonnull align 8 dereferenceable(8) %"class.std::basic_ostream"* @_ZSt16__ostream_insertIcSt11char_traitsIcEERSt13basic_ostreamIT_T0_ES6_PKS3_l(%"class.std::basic_ostream"* nonnull align 8 dereferenceable(8), i8*, i64) local_unnamed_addr #0

declare nonnull align 8 dereferenceable(8) %"class.std::basic_ostream"* @_ZNSo3putEc(%"class.std::basic_ostream"* nonnull align 8 dereferenceable(8), i8 signext) local_unnamed_addr #0

declare nonnull align 8 dereferenceable(8) %"class.std::basic_ostream"* @_ZNSo5flushEv(%"class.std::basic_ostream"* nonnull align 8 dereferenceable(8)) local_unnamed_addr #0

; Function Attrs: noreturn
declare void @_ZSt16__throw_bad_castv() local_unnamed_addr #7

declare void @_ZNKSt5ctypeIcE13_M_widen_initEv(%"class.std::ctype"* nonnull align 8 dereferenceable(570)) local_unnamed_addr #0

; Function Attrs: sspstrong uwtable
define internal void @_GLOBAL__sub_I_465.cpp() #8 section ".text.startup" {
  tail call void @_ZNSt8ios_base4InitC1Ev(%"class.std::ios_base::Init"* nonnull align 1 dereferenceable(1) @_ZStL8__ioinit)
  %1 = tail call i32 @__cxa_atexit(void (i8*)* bitcast (void (%"class.std::ios_base::Init"*)* @_ZNSt8ios_base4InitD1Ev to void (i8*)*), i8* getelementptr inbounds (%"class.std::ios_base::Init", %"class.std::ios_base::Init"* @_ZStL8__ioinit, i64 0, i32 0), i8* nonnull @__dso_handle) #11
  ret void
}

; Function Attrs: nofree nosync nounwind readnone speculatable willreturn
declare i64 @llvm.umax.i64(i64, i64) #9

; Function Attrs: nofree nosync nounwind readnone willreturn
declare i32 @llvm.vector.reduce.add.v4i32(<4 x i32>) #10


!llvm.module.flags = !{!0, !1, !2, !3}
!llvm.ident = !{!4}

!0 = !{i32 1, !"wchar_size", i32 4}
!1 = !{i32 7, !"PIC Level", i32 2}
!2 = !{i32 7, !"PIE Level", i32 2}
!3 = !{i32 7, !"uwtable", i32 1}
!4 = !{!"clang version 13.0.0"}
!5 = !{!6, !6, i64 0}
!6 = !{!"omnipotent char", !7, i64 0}
!7 = !{!"Simple C++ TBAA"}
!8 = distinct !{!8, !9, !10}
!9 = !{!"llvm.loop.mustprogress"}
!10 = !{!"llvm.loop.isvectorized", i32 1}
!11 = distinct !{!11, !9, !10}
!12 = distinct !{!12, !9}
!13 = !{!14, !14, i64 0}
!14 = !{!"vtable pointer", !7, i64 0}
!15 = !{!16, !17, i64 240}
!16 = !{!"_ZTSSt9basic_iosIcSt11char_traitsIcEE", !17, i64 216, !6, i64 224, !18, i64 225, !17, i64 232, !17, i64 240, !17, i64 248, !17, i64 256}
!17 = !{!"any pointer", !6, i64 0}
!18 = !{!"bool", !6, i64 0}
!19 = !{!20, !6, i64 56}
!20 = !{!"_ZTSSt5ctypeIcE", !17, i64 16, !18, i64 24, !17, i64 32, !17, i64 40, !17, i64 48, !6, i64 56, !6, i64 57, !6, i64 313, !6, i64 569}
!21 = distinct !{!21, !9}
!22 = distinct !{!22, !9}
